; Function Attrs: nofree norecurse nosync nounwind memory(read, argmem: readwrite, inaccessiblemem: none) uwtable
define void @Aig_TsiStateOrAll(ptr noundef readonly captures(none) %0, ptr noundef captures(none) %1) local_unnamed_addr #11 {
  %3 = getelementptr inbounds nuw i8, ptr %0, i64 16
  %4 = load ptr, ptr %3, align 8, !tbaa !29
  %5 = getelementptr i8, ptr %4, i64 4
  %.val1214 = load i32, ptr %5, align 4, !tbaa !25
  %6 = icmp sgt i32 %.val1214, 0
  br i1 %6, label %.lr.ph17, label %.critedge

.lr.ph17:                                         ; preds = %2
  %7 = getelementptr i8, ptr %4, i64 8
  %.val = load ptr, ptr %7, align 8, !tbaa !28
  %8 = getelementptr inbounds nuw i8, ptr %0, i64 8
  %9 = load i32, ptr %8, align 8, !tbaa !24
  %10 = icmp sgt i32 %9, 0
  br i1 %10, label %.lr.ph17.split, label %.critedge

.lr.ph17.split:                                   ; preds = %.lr.ph17, %._crit_edge
  %.val1223 = phi i32 [ %.val12, %._crit_edge ], [ %.val1214, %.lr.ph17 ]
  %11 = phi i32 [ %23, %._crit_edge ], [ %9, %.lr.ph17 ]
  %indvars.iv20 = phi i64 [ %indvars.iv.next21, %._crit_edge ], [ 0, %.lr.ph17 ]
  %12 = getelementptr inbounds nuw ptr, ptr %.val, i64 %indvars.iv20
  %13 = load ptr, ptr %12, align 8, !tbaa !40
  %14 = icmp sgt i32 %11, 0
  br i1 %14, label %.lr.ph, label %._crit_edge

.lr.ph:                                           ; preds = %.lr.ph17.split, %.lr.ph
  %indvars.iv = phi i64 [ %indvars.iv.next, %.lr.ph ], [ 0, %.lr.ph17.split ]
  %15 = getelementptr inbounds nuw i32, ptr %13, i64 %indvars.iv
  %16 = load i32, ptr %15, align 4, !tbaa !36
  %17 = getelementptr inbounds nuw i32, ptr %1, i64 %indvars.iv
  %18 = load i32, ptr %17, align 4, !tbaa !36
  %19 = or i32 %18, %16
  store i32 %19, ptr %17, align 4, !tbaa !36
  %indvars.iv.next = add nuw nsw i64 %indvars.iv, 1
  %20 = load i32, ptr %8, align 8, !tbaa !24
  %21 = sext i32 %20 to i64
  %22 = icmp slt i64 %indvars.iv.next, %21
  br i1 %22, label %.lr.ph, label %._crit_edge.loopexit, !llvm.loop !43

._crit_edge.loopexit:                             ; preds = %.lr.ph
  %.val12.pre = load i32, ptr %5, align 4, !tbaa !25
  br label %._crit_edge

._crit_edge:                                      ; preds = %._crit_edge.loopexit, %.lr.ph17.split
  %.val12 = phi i32 [ %.val12.pre, %._crit_edge.loopexit ], [ %.val1223, %.lr.ph17.split ]
  %23 = phi i32 [ %20, %._crit_edge.loopexit ], [ %11, %.lr.ph17.split ]
  %indvars.iv.next21 = add nuw nsw i64 %indvars.iv20, 1
  %24 = sext i32 %.val12 to i64
  %25 = icmp slt i64 %indvars.iv.next21, %24
  br i1 %25, label %.lr.ph17.split, label %.critedge, !llvm.loop !44

.critedge:                                        ; preds = %._crit_edge, %.lr.ph17, %2
  ret void
}